	.file	"vuln.c"
	.text
	.globl	call_gets
	.type	call_gets, @function
call_gets:
.LFB0:
	.cfi_startproc
	endbr64
	pushq	%rbp
	.cfi_def_cfa_offset 16
	.cfi_offset 6, -16
	movq	%rsp, %rbp
	.cfi_def_cfa_register 6
	subq	$112, %rsp
	movq	%fs:40, %rax
	movq	%rax, -8(%rbp)
	xorl	%eax, %eax
	leaq	-112(%rbp), %rax
	movq	%rax, %rdi
	movl	$0, %eax
	call	gets@PLT
	leaq	-112(%rbp), %rax
	movq	%rax, %rdi
	call	puts@PLT
	movl	$0, %eax
	movq	-8(%rbp), %rdx
	xorq	%fs:40, %rdx
	je	.L3
	call	__stack_chk_fail@PLT
.L3:
	leave
    nop
    nop
    lea     (%rip), %rcx
    shr     $32, %rcx
    shl     $32, %rcx
    or      %rcx, (%rsp)
    nop
    nop
	.cfi_def_cfa 7, 8
	ret
	.cfi_endproc
.LFE0:
	.size	call_gets, .-call_gets
	.globl	main
	.type	main, @function
main:
.LFB1:
	.cfi_startproc
	endbr64
	pushq	%rbp
	.cfi_def_cfa_offset 16
	.cfi_offset 6, -16
	movq	%rsp, %rbp
	.cfi_def_cfa_register 6
	movl	$0, %eax
	call	call_gets
	movl	$0, %eax
	popq	%rbp
	.cfi_def_cfa 7, 8
	ret
	.cfi_endproc
.LFE1:
	.size	main, .-main
	.ident	"GCC: (Ubuntu 9.3.0-10ubuntu2) 9.3.0"
	.section	.note.GNU-stack,"",@progbits
	.section	.note.gnu.property,"a"
	.align 8
	.long	 1f - 0f
	.long	 4f - 1f
	.long	 5
0:
	.string	 "GNU"
1:
	.align 8
	.long	 0xc0000002
	.long	 3f - 2f
2:
	.long	 0x3
3:
	.align 8
4:
